target datalayout = "e-m:e-p270:32:32-p271:32:32-p272:64:64-i64:64-i128:128-f80:128-n8:16:32:64-S128"
target triple = "x86_64-pc-linux-gnu"

%struct.H5VL_dataset_specific_args_t = type { i32, %union.anon.7 }
%union.anon.7 = type { %struct.anon.8 }
%struct.anon.8 = type { ptr }
%struct.anon.9 = type { i64 }
%struct.anon.10 = type { i64 }

@.str = private unnamed_addr constant [112 x i8] c"generated/home/dtcxzyw/WorkSpace/Projects/compilers/llvm-opt-benchmark/bench/hdf5/hdf5/src/H5VLnative_dataset.c\00", align 1
@H5E_DATASET_g = external global i64, align 8
@H5E_VOL_g = external global i64, align 8
@__func__.H5VL__native_dataset_specific = private unnamed_addr constant [30 x i8] c"H5VL__native_dataset_specific\00", align 1
@H5E_CANTSET_g = external global i64, align 8
@.str.20 = private unnamed_addr constant [32 x i8] c"unable to set extent of dataset\00", align 1
@H5E_CANTFLUSH_g = external global i64, align 8
@.str.21 = private unnamed_addr constant [24 x i8] c"unable to flush dataset\00", align 1
@H5E_CANTLOAD_g = external global i64, align 8
@.str.22 = private unnamed_addr constant [26 x i8] c"unable to refresh dataset\00", align 1
@H5E_UNSUPPORTED_g = external global i64, align 8
@.str.23 = private unnamed_addr constant [27 x i8] c"invalid specific operation\00", align 1

; Function Attrs: nounwind uwtable
define i32 @H5VL__native_dataset_specific(ptr noundef %0, ptr noundef %1, i64 noundef %2, ptr noundef %3) #0 {
  %5 = alloca ptr, align 8
  %6 = alloca ptr, align 8
  %7 = alloca i64, align 8
  %8 = alloca ptr, align 8
  %9 = alloca ptr, align 8
  %10 = alloca i32, align 4
  %11 = alloca i8, align 1
  store ptr %0, ptr %5, align 8, !tbaa !3
  store ptr %1, ptr %6, align 8, !tbaa !96
  store i64 %2, ptr %7, align 8, !tbaa !11
  store ptr %3, ptr %8, align 8, !tbaa !3
  call void @llvm.lifetime.start.p0(i64 8, ptr %9) #6
  %12 = load ptr, ptr %5, align 8, !tbaa !3
  store ptr %12, ptr %9, align 8, !tbaa !13
  call void @llvm.lifetime.start.p0(i64 4, ptr %10) #6
  store i32 0, ptr %10, align 4, !tbaa !36
  call void @llvm.lifetime.start.p0(i64 1, ptr %11) #6
  store i8 0, ptr %11, align 1, !tbaa !15
  %13 = load ptr, ptr %6, align 8, !tbaa !96
  %14 = getelementptr inbounds nuw %struct.H5VL_dataset_specific_args_t, ptr %13, i32 0, i32 0
  %15 = load i32, ptr %14, align 8, !tbaa !98
  switch i32 %15, label %100 [
    i32 0, label %16
    i32 1, label %44
    i32 2, label %72
  ]

16:                                               ; preds = %4
  %17 = load ptr, ptr %9, align 8, !tbaa !13
  %18 = load ptr, ptr %6, align 8, !tbaa !96
  %19 = getelementptr inbounds nuw %struct.H5VL_dataset_specific_args_t, ptr %18, i32 0, i32 1
  %20 = getelementptr inbounds nuw %struct.anon.8, ptr %19, i32 0, i32 0
  %21 = load ptr, ptr %20, align 8, !tbaa !88
  %22 = call i32 @H5D__set_extent(ptr noundef %17, ptr noundef %21)
  %23 = icmp slt i32 %22, 0
  br i1 %23, label %24, label %43

24:                                               ; preds = %16
  br label %25

25:                                               ; preds = %24
  br label %26

26:                                               ; preds = %25
  br label %27

27:                                               ; preds = %26
  %28 = load i64, ptr @H5E_DATASET_g, align 8, !tbaa !11
  %29 = load i64, ptr @H5E_CANTSET_g, align 8, !tbaa !11
  %30 = call i32 (ptr, ptr, i32, i64, i64, ptr, ...) @H5E_printf_stack(ptr noundef @.str, ptr noundef @__func__.H5VL__native_dataset_specific, i32 noundef 530, i64 noundef %28, i64 noundef %29, ptr noundef @.str.20)
  br label %31

31:                                               ; preds = %27
  br label %32

32:                                               ; preds = %31
  store i8 1, ptr %11, align 1, !tbaa !15
  %33 = load i8, ptr %11, align 1, !tbaa !15, !range !20, !noundef !21
  %34 = trunc i8 %33 to i1
  %35 = zext i1 %34 to i8
  store i8 %35, ptr %11, align 1, !tbaa !15
  br label %36

36:                                               ; preds = %32
  br label %37

37:                                               ; preds = %36
  br label %38

38:                                               ; preds = %37
  store i32 -1, ptr %10, align 4, !tbaa !36
  br label %120

39:                                               ; No predecessors!
  br label %40

40:                                               ; preds = %39
  br label %41

41:                                               ; preds = %40
  br label %42

42:                                               ; preds = %41
  br label %43

43:                                               ; preds = %42, %16
  br label %119

44:                                               ; preds = %4
  %45 = load ptr, ptr %9, align 8, !tbaa !13
  %46 = load ptr, ptr %6, align 8, !tbaa !96
  %47 = getelementptr inbounds nuw %struct.H5VL_dataset_specific_args_t, ptr %46, i32 0, i32 1
  %48 = getelementptr inbounds nuw %struct.anon.9, ptr %47, i32 0, i32 0
  %49 = load i64, ptr %48, align 8, !tbaa !88
  %50 = call i32 @H5D__flush(ptr noundef %45, i64 noundef %49)
  %51 = icmp slt i32 %50, 0
  br i1 %51, label %52, label %71

52:                                               ; preds = %44
  br label %53

53:                                               ; preds = %52
  br label %54

54:                                               ; preds = %53
  br label %55

55:                                               ; preds = %54
  %56 = load i64, ptr @H5E_DATASET_g, align 8, !tbaa !11
  %57 = load i64, ptr @H5E_CANTFLUSH_g, align 8, !tbaa !11
  %58 = call i32 (ptr, ptr, i32, i64, i64, ptr, ...) @H5E_printf_stack(ptr noundef @.str, ptr noundef @__func__.H5VL__native_dataset_specific, i32 noundef 537, i64 noundef %56, i64 noundef %57, ptr noundef @.str.21)
  br label %59

59:                                               ; preds = %55
  br label %60

60:                                               ; preds = %59
  store i8 1, ptr %11, align 1, !tbaa !15
  %61 = load i8, ptr %11, align 1, !tbaa !15, !range !20, !noundef !21
  %62 = trunc i8 %61 to i1
  %63 = zext i1 %62 to i8
  store i8 %63, ptr %11, align 1, !tbaa !15
  br label %64

64:                                               ; preds = %60
  br label %65

65:                                               ; preds = %64
  br label %66

66:                                               ; preds = %65
  store i32 -1, ptr %10, align 4, !tbaa !36
  br label %120

67:                                               ; No predecessors!
  br label %68

68:                                               ; preds = %67
  br label %69

69:                                               ; preds = %68
  br label %70

70:                                               ; preds = %69
  br label %71

71:                                               ; preds = %70, %44
  br label %119

72:                                               ; preds = %4
  %73 = load ptr, ptr %9, align 8, !tbaa !13
  %74 = load ptr, ptr %6, align 8, !tbaa !96
  %75 = getelementptr inbounds nuw %struct.H5VL_dataset_specific_args_t, ptr %74, i32 0, i32 1
  %76 = getelementptr inbounds nuw %struct.anon.10, ptr %75, i32 0, i32 0
  %77 = load i64, ptr %76, align 8, !tbaa !88
  %78 = call i32 @H5D__refresh(ptr noundef %73, i64 noundef %77)
  %79 = icmp slt i32 %78, 0
  br i1 %79, label %80, label %99

80:                                               ; preds = %72
  br label %81

81:                                               ; preds = %80
  br label %82

82:                                               ; preds = %81
  br label %83

83:                                               ; preds = %82
  %84 = load i64, ptr @H5E_DATASET_g, align 8, !tbaa !11
  %85 = load i64, ptr @H5E_CANTLOAD_g, align 8, !tbaa !11
  %86 = call i32 (ptr, ptr, i32, i64, i64, ptr, ...) @H5E_printf_stack(ptr noundef @.str, ptr noundef @__func__.H5VL__native_dataset_specific, i32 noundef 545, i64 noundef %84, i64 noundef %85, ptr noundef @.str.22)
  br label %87

87:                                               ; preds = %83
  br label %88

88:                                               ; preds = %87
  store i8 1, ptr %11, align 1, !tbaa !15
  %89 = load i8, ptr %11, align 1, !tbaa !15, !range !20, !noundef !21
  %90 = trunc i8 %89 to i1
  %91 = zext i1 %90 to i8
  store i8 %91, ptr %11, align 1, !tbaa !15
  br label %92

92:                                               ; preds = %88
  br label %93

93:                                               ; preds = %92
  br label %94

94:                                               ; preds = %93
  store i32 -1, ptr %10, align 4, !tbaa !36
  br label %120

95:                                               ; No predecessors!
  br label %96

96:                                               ; preds = %95
  br label %97

97:                                               ; preds = %96
  br label %98

98:                                               ; preds = %97
  br label %99

99:                                               ; preds = %98, %72
  br label %119

100:                                              ; preds = %4
  br label %101

101:                                              ; preds = %100
  br label %102

102:                                              ; preds = %101
  br label %103

103:                                              ; preds = %102
  %104 = load i64, ptr @H5E_VOL_g, align 8, !tbaa !11
  %105 = load i64, ptr @H5E_UNSUPPORTED_g, align 8, !tbaa !11
  %106 = call i32 (ptr, ptr, i32, i64, i64, ptr, ...) @H5E_printf_stack(ptr noundef @.str, ptr noundef @__func__.H5VL__native_dataset_specific, i32 noundef 551, i64 noundef %104, i64 noundef %105, ptr noundef @.str.23)
  br label %107

107:                                              ; preds = %103
  br label %108

108:                                              ; preds = %107
  store i8 1, ptr %11, align 1, !tbaa !15
  %109 = load i8, ptr %11, align 1, !tbaa !15, !range !20, !noundef !21
  %110 = trunc i8 %109 to i1
  %111 = zext i1 %110 to i8
  store i8 %111, ptr %11, align 1, !tbaa !15
  br label %112

112:                                              ; preds = %108
  br label %113

113:                                              ; preds = %112
  br label %114

114:                                              ; preds = %113
  store i32 -1, ptr %10, align 4, !tbaa !36
  br label %120

115:                                              ; No predecessors!
  br label %116

116:                                              ; preds = %115
  br label %117

117:                                              ; preds = %116
  br label %118

118:                                              ; preds = %117
  br label %119

119:                                              ; preds = %118, %99, %71, %43
  br label %120

120:                                              ; preds = %119, %114, %94, %66, %38
  %121 = load i32, ptr %10, align 4, !tbaa !36
  call void @llvm.lifetime.end.p0(i64 1, ptr %11) #6
  call void @llvm.lifetime.end.p0(i64 4, ptr %10) #6
  call void @llvm.lifetime.end.p0(i64 8, ptr %9) #6
  ret i32 %121
}