; Function Attrs: nounwind uwtable
define range(i32 -1, 1) i32 @H5VL__native_dataset_specific(ptr noundef %0, ptr noundef readonly captures(none) %1, i64 noundef %2, ptr noundef readnone captures(none) %3) local_unnamed_addr #0 {
  %5 = load i32, ptr %1, align 8, !tbaa !72
  switch i32 %5, label %33 [
    i32 0, label %6
    i32 1, label %15
    i32 2, label %24
  ]

6:                                                ; preds = %4
  %7 = getelementptr inbounds nuw i8, ptr %1, i64 8
  %8 = load ptr, ptr %7, align 8, !tbaa !66
  %9 = tail call i32 @H5D__set_extent(ptr noundef %0, ptr noundef %8) #5
  %10 = icmp slt i32 %9, 0
  br i1 %10, label %11, label %37

11:                                               ; preds = %6
  %12 = load i64, ptr @H5E_DATASET_g, align 8, !tbaa !8
  %13 = load i64, ptr @H5E_CANTSET_g, align 8, !tbaa !8
  %14 = tail call i32 (ptr, ptr, i32, i64, i64, ptr, ...) @H5E_printf_stack(ptr noundef nonnull @.str, ptr noundef nonnull @__func__.H5VL__native_dataset_specific, i32 noundef 530, i64 noundef %12, i64 noundef %13, ptr noundef nonnull @.str.20) #5
  br label %37

15:                                               ; preds = %4
  %16 = getelementptr inbounds nuw i8, ptr %1, i64 8
  %17 = load i64, ptr %16, align 8, !tbaa !66
  %18 = tail call i32 @H5D__flush(ptr noundef %0, i64 noundef %17) #5
  %19 = icmp slt i32 %18, 0
  br i1 %19, label %20, label %37

20:                                               ; preds = %15
  %21 = load i64, ptr @H5E_DATASET_g, align 8, !tbaa !8
  %22 = load i64, ptr @H5E_CANTFLUSH_g, align 8, !tbaa !8
  %23 = tail call i32 (ptr, ptr, i32, i64, i64, ptr, ...) @H5E_printf_stack(ptr noundef nonnull @.str, ptr noundef nonnull @__func__.H5VL__native_dataset_specific, i32 noundef 537, i64 noundef %21, i64 noundef %22, ptr noundef nonnull @.str.21) #5
  br label %37

24:                                               ; preds = %4
  %25 = getelementptr inbounds nuw i8, ptr %1, i64 8
  %26 = load i64, ptr %25, align 8, !tbaa !66
  %27 = tail call i32 @H5D__refresh(ptr noundef %0, i64 noundef %26) #5
  %28 = icmp slt i32 %27, 0
  br i1 %28, label %29, label %37

29:                                               ; preds = %24
  %30 = load i64, ptr @H5E_DATASET_g, align 8, !tbaa !8
  %31 = load i64, ptr @H5E_CANTLOAD_g, align 8, !tbaa !8
  %32 = tail call i32 (ptr, ptr, i32, i64, i64, ptr, ...) @H5E_printf_stack(ptr noundef nonnull @.str, ptr noundef nonnull @__func__.H5VL__native_dataset_specific, i32 noundef 545, i64 noundef %30, i64 noundef %31, ptr noundef nonnull @.str.22) #5
  br label %37

33:                                               ; preds = %4
  %34 = load i64, ptr @H5E_VOL_g, align 8, !tbaa !8
  %35 = load i64, ptr @H5E_UNSUPPORTED_g, align 8, !tbaa !8
  %36 = tail call i32 (ptr, ptr, i32, i64, i64, ptr, ...) @H5E_printf_stack(ptr noundef nonnull @.str, ptr noundef nonnull @__func__.H5VL__native_dataset_specific, i32 noundef 551, i64 noundef %34, i64 noundef %35, ptr noundef nonnull @.str.23) #5
  br label %37

37:                                               ; preds = %6, %15, %24, %33, %29, %20, %11
  %.0 = phi i32 [ -1, %33 ], [ -1, %29 ], [ 0, %24 ], [ -1, %20 ], [ 0, %15 ], [ -1, %11 ], [ 0, %6 ]
  ret i32 %.0
}